target datalayout = "e-m:e-p270:32:32-p271:32:32-p272:64:64-i64:64-i128:128-f80:128-n8:16:32:64-S128"
target triple = "x86_64-pc-linux-gnu"

%struct.ossl_param_st = type { ptr, i32, ptr, i64, i64 }

@.str.17 = private unnamed_addr constant [5 x i8] c"bits\00", align 1
@.str.18 = private unnamed_addr constant [14 x i8] c"security-bits\00", align 1
@.str.19 = private unnamed_addr constant [9 x i8] c"max-size\00", align 1
@.str.20 = private unnamed_addr constant [16 x i8] c"encoded-pub-key\00", align 1

; Function Attrs: inlinehint nounwind uwtable
define internal i32 @dh_get_params(ptr noundef %0, ptr noundef %1) #1 {
  %3 = alloca i32, align 4
  %4 = alloca ptr, align 8
  %5 = alloca ptr, align 8
  %6 = alloca ptr, align 8
  %7 = alloca ptr, align 8
  %8 = alloca i32, align 4
  store ptr %0, ptr %4, align 8, !tbaa !3
  store ptr %1, ptr %5, align 8, !tbaa !11
  call void @llvm.lifetime.start.p0(i64 8, ptr %6) #8
  %9 = load ptr, ptr %4, align 8, !tbaa !3
  store ptr %9, ptr %6, align 8, !tbaa !7
  call void @llvm.lifetime.start.p0(i64 8, ptr %7) #8
  %10 = load ptr, ptr %5, align 8, !tbaa !11
  %11 = call ptr @OSSL_PARAM_locate(ptr noundef %10, ptr noundef @.str.17)
  store ptr %11, ptr %7, align 8, !tbaa !11
  %12 = icmp ne ptr %11, null
  br i1 %12, label %13, label %20

13:                                               ; preds = %2
  %14 = load ptr, ptr %7, align 8, !tbaa !11
  %15 = load ptr, ptr %6, align 8, !tbaa !7
  %16 = call i32 @DH_bits(ptr noundef %15)
  %17 = call i32 @OSSL_PARAM_set_int(ptr noundef %14, i32 noundef %16)
  %18 = icmp ne i32 %17, 0
  br i1 %18, label %20, label %19

19:                                               ; preds = %13
  store i32 0, ptr %3, align 4
  store i32 1, ptr %8, align 4
  br label %81

20:                                               ; preds = %13, %2
  %21 = load ptr, ptr %5, align 8, !tbaa !11
  %22 = call ptr @OSSL_PARAM_locate(ptr noundef %21, ptr noundef @.str.18)
  store ptr %22, ptr %7, align 8, !tbaa !11
  %23 = icmp ne ptr %22, null
  br i1 %23, label %24, label %31

24:                                               ; preds = %20
  %25 = load ptr, ptr %7, align 8, !tbaa !11
  %26 = load ptr, ptr %6, align 8, !tbaa !7
  %27 = call i32 @DH_security_bits(ptr noundef %26)
  %28 = call i32 @OSSL_PARAM_set_int(ptr noundef %25, i32 noundef %27)
  %29 = icmp ne i32 %28, 0
  br i1 %29, label %31, label %30

30:                                               ; preds = %24
  store i32 0, ptr %3, align 4
  store i32 1, ptr %8, align 4
  br label %81

31:                                               ; preds = %24, %20
  %32 = load ptr, ptr %5, align 8, !tbaa !11
  %33 = call ptr @OSSL_PARAM_locate(ptr noundef %32, ptr noundef @.str.19)
  store ptr %33, ptr %7, align 8, !tbaa !11
  %34 = icmp ne ptr %33, null
  br i1 %34, label %35, label %42

35:                                               ; preds = %31
  %36 = load ptr, ptr %7, align 8, !tbaa !11
  %37 = load ptr, ptr %6, align 8, !tbaa !7
  %38 = call i32 @DH_size(ptr noundef %37)
  %39 = call i32 @OSSL_PARAM_set_int(ptr noundef %36, i32 noundef %38)
  %40 = icmp ne i32 %39, 0
  br i1 %40, label %42, label %41

41:                                               ; preds = %35
  store i32 0, ptr %3, align 4
  store i32 1, ptr %8, align 4
  br label %81

42:                                               ; preds = %35, %31
  %43 = load ptr, ptr %5, align 8, !tbaa !11
  %44 = call ptr @OSSL_PARAM_locate(ptr noundef %43, ptr noundef @.str.20)
  store ptr %44, ptr %7, align 8, !tbaa !11
  %45 = icmp ne ptr %44, null
  br i1 %45, label %46, label %68

46:                                               ; preds = %42
  %47 = load ptr, ptr %7, align 8, !tbaa !11
  %48 = getelementptr inbounds nuw %struct.ossl_param_st, ptr %47, i32 0, i32 1
  %49 = load i32, ptr %48, align 8, !tbaa !47
  %50 = icmp ne i32 %49, 5
  br i1 %50, label %51, label %52

51:                                               ; preds = %46
  store i32 0, ptr %3, align 4
  store i32 1, ptr %8, align 4
  br label %81

52:                                               ; preds = %46
  %53 = load ptr, ptr %6, align 8, !tbaa !7
  %54 = load ptr, ptr %7, align 8, !tbaa !11
  %55 = getelementptr inbounds nuw %struct.ossl_param_st, ptr %54, i32 0, i32 2
  %56 = load ptr, ptr %7, align 8, !tbaa !11
  %57 = getelementptr inbounds nuw %struct.ossl_param_st, ptr %56, i32 0, i32 3
  %58 = load i64, ptr %57, align 8, !tbaa !49
  %59 = call i64 @ossl_dh_key2buf(ptr noundef %53, ptr noundef %55, i64 noundef %58, i32 noundef 0)
  %60 = load ptr, ptr %7, align 8, !tbaa !11
  %61 = getelementptr inbounds nuw %struct.ossl_param_st, ptr %60, i32 0, i32 4
  store i64 %59, ptr %61, align 8, !tbaa !50
  %62 = load ptr, ptr %7, align 8, !tbaa !11
  %63 = getelementptr inbounds nuw %struct.ossl_param_st, ptr %62, i32 0, i32 4
  %64 = load i64, ptr %63, align 8, !tbaa !50
  %65 = icmp eq i64 %64, 0
  br i1 %65, label %66, label %67

66:                                               ; preds = %52
  store i32 0, ptr %3, align 4
  store i32 1, ptr %8, align 4
  br label %81

67:                                               ; preds = %52
  br label %68

68:                                               ; preds = %67, %42
  %69 = load ptr, ptr %6, align 8, !tbaa !7
  %70 = load ptr, ptr %5, align 8, !tbaa !11
  %71 = call i32 @ossl_dh_params_todata(ptr noundef %69, ptr noundef null, ptr noundef %70)
  %72 = icmp ne i32 %71, 0
  br i1 %72, label %73, label %78

73:                                               ; preds = %68
  %74 = load ptr, ptr %6, align 8, !tbaa !7
  %75 = load ptr, ptr %5, align 8, !tbaa !11
  %76 = call i32 @ossl_dh_key_todata(ptr noundef %74, ptr noundef null, ptr noundef %75, i32 noundef 1)
  %77 = icmp ne i32 %76, 0
  br label %78

78:                                               ; preds = %73, %68
  %79 = phi i1 [ false, %68 ], [ %77, %73 ]
  %80 = zext i1 %79 to i32
  store i32 %80, ptr %3, align 4
  store i32 1, ptr %8, align 4
  br label %81

81:                                               ; preds = %78, %66, %51, %41, %30, %19
  call void @llvm.lifetime.end.p0(i64 8, ptr %7) #8
  call void @llvm.lifetime.end.p0(i64 8, ptr %6) #8
  %82 = load i32, ptr %3, align 4
  ret i32 %82
}