; Function Attrs: inlinehint nounwind uwtable
define internal range(i32 0, 2) i32 @dh_get_params(ptr noundef %0, ptr noundef %1) #2 {
  %3 = tail call ptr @OSSL_PARAM_locate(ptr noundef %1, ptr noundef nonnull @.str.17) #8
  %.not = icmp eq ptr %3, null
  br i1 %.not, label %7, label %4

4:                                                ; preds = %2
  %5 = tail call i32 @DH_bits(ptr noundef %0) #8
  %6 = tail call i32 @OSSL_PARAM_set_int(ptr noundef nonnull %3, i32 noundef %5) #8
  %.not25 = icmp eq i32 %6, 0
  br i1 %.not25, label %35, label %7

7:                                                ; preds = %4, %2
  %8 = tail call ptr @OSSL_PARAM_locate(ptr noundef %1, ptr noundef nonnull @.str.18) #8
  %.not26 = icmp eq ptr %8, null
  br i1 %.not26, label %12, label %9

9:                                                ; preds = %7
  %10 = tail call i32 @DH_security_bits(ptr noundef %0) #8
  %11 = tail call i32 @OSSL_PARAM_set_int(ptr noundef nonnull %8, i32 noundef %10) #8
  %.not27 = icmp eq i32 %11, 0
  br i1 %.not27, label %35, label %12

12:                                               ; preds = %9, %7
  %13 = tail call ptr @OSSL_PARAM_locate(ptr noundef %1, ptr noundef nonnull @.str.19) #8
  %.not28 = icmp eq ptr %13, null
  br i1 %.not28, label %17, label %14

14:                                               ; preds = %12
  %15 = tail call i32 @DH_size(ptr noundef %0) #8
  %16 = tail call i32 @OSSL_PARAM_set_int(ptr noundef nonnull %13, i32 noundef %15) #8
  %.not29 = icmp eq i32 %16, 0
  br i1 %.not29, label %35, label %17

17:                                               ; preds = %14, %12
  %18 = tail call ptr @OSSL_PARAM_locate(ptr noundef %1, ptr noundef nonnull @.str.20) #8
  %.not30 = icmp eq ptr %18, null
  br i1 %.not30, label %29, label %19

19:                                               ; preds = %17
  %20 = getelementptr inbounds nuw i8, ptr %18, i64 8
  %21 = load i32, ptr %20, align 8, !tbaa !38
  %.not31 = icmp eq i32 %21, 5
  br i1 %.not31, label %22, label %35

22:                                               ; preds = %19
  %23 = getelementptr inbounds nuw i8, ptr %18, i64 16
  %24 = getelementptr inbounds nuw i8, ptr %18, i64 24
  %25 = load i64, ptr %24, align 8, !tbaa !40
  %26 = tail call i64 @ossl_dh_key2buf(ptr noundef %0, ptr noundef nonnull %23, i64 noundef %25, i32 noundef 0) #8
  %27 = getelementptr inbounds nuw i8, ptr %18, i64 32
  store i64 %26, ptr %27, align 8, !tbaa !41
  %28 = icmp eq i64 %26, 0
  br i1 %28, label %35, label %29

29:                                               ; preds = %22, %17
  %30 = tail call i32 @ossl_dh_params_todata(ptr noundef %0, ptr noundef null, ptr noundef %1) #8
  %.not32 = icmp eq i32 %30, 0
  br i1 %.not32, label %35, label %31

31:                                               ; preds = %29
  %32 = tail call i32 @ossl_dh_key_todata(ptr noundef %0, ptr noundef null, ptr noundef %1, i32 noundef 1) #8
  %33 = icmp ne i32 %32, 0
  %34 = zext i1 %33 to i32
  br label %35

35:                                               ; preds = %29, %31, %22, %19, %14, %9, %4
  %.0 = phi i32 [ 0, %4 ], [ 0, %9 ], [ 0, %14 ], [ 0, %19 ], [ 0, %22 ], [ 0, %29 ], [ %34, %31 ]
  ret i32 %.0
}